target datalayout = "e-m:e-p270:32:32-p271:32:32-p272:64:64-i64:64-i128:128-f80:128-n8:16:32:64-S128"
target triple = "x86_64-pc-linux-gnu"

%struct.Gli_Man_t_ = type { ptr, ptr, ptr, ptr, ptr, i32, i32, i32, i32, i32, ptr, ptr }
%struct.Gli_Obj_t_ = type { i32, i32, ptr, i32, %union.anon, %union.anon.0, [0 x i32] }
%union.anon = type { i32 }
%union.anon.0 = type { i32 }

; Function Attrs: inlinehint nounwind uwtable
define internal i32 @Gli_ObjSize(ptr noundef %0) #3 {
  %2 = alloca ptr, align 8
  store ptr %0, ptr %2, align 8, !tbaa !27
  %3 = load ptr, ptr %2, align 8, !tbaa !27
  %4 = load i32, ptr %3, align 8
  %5 = lshr i32 %4, 4
  %6 = and i32 %5, 7
  %7 = zext i32 %6 to i64
  %8 = add i64 8, %7
  %9 = load ptr, ptr %2, align 8, !tbaa !27
  %10 = load i32, ptr %9, align 8
  %11 = lshr i32 %10, 7
  %12 = zext i32 %11 to i64
  %13 = add i64 %8, %12
  %14 = trunc i64 %13 to i32
  ret i32 %14
}

; Function Attrs: inlinehint nounwind uwtable
define internal ptr @Gli_ManObj(ptr noundef %0, i32 noundef %1) #3 {
  %3 = alloca ptr, align 8
  %4 = alloca i32, align 4
  store ptr %0, ptr %3, align 8, !tbaa !7
  store i32 %1, ptr %4, align 4, !tbaa !3
  %5 = load ptr, ptr %3, align 8, !tbaa !7
  %6 = getelementptr inbounds nuw %struct.Gli_Man_t_, ptr %5, i32 0, i32 10
  %7 = load ptr, ptr %6, align 8, !tbaa !20
  %8 = load i32, ptr %4, align 4, !tbaa !3
  %9 = sext i32 %8 to i64
  %10 = getelementptr inbounds i32, ptr %7, i64 %9
  ret ptr %10
}

; Function Attrs: nounwind uwtable
define void @Gli_ManFinalize(ptr noundef %0) #0 {
  %2 = alloca ptr, align 8
  %3 = alloca ptr, align 8
  %4 = alloca i32, align 4
  store ptr %0, ptr %2, align 8, !tbaa !7
  call void @llvm.lifetime.start.p0(i64 8, ptr %3) #10
  call void @llvm.lifetime.start.p0(i64 4, ptr %4) #10
  store i32 0, ptr %4, align 4, !tbaa !3
  br label %5

5:                                                ; preds = %23, %1
  %6 = load i32, ptr %4, align 4, !tbaa !3
  %7 = load ptr, ptr %2, align 8, !tbaa !7
  %8 = getelementptr inbounds nuw %struct.Gli_Man_t_, ptr %7, i32 0, i32 9
  %9 = load i32, ptr %8, align 8, !tbaa !19
  %10 = icmp slt i32 %6, %9
  br i1 %10, label %11, label %16

11:                                               ; preds = %5
  %12 = load ptr, ptr %2, align 8, !tbaa !7
  %13 = load i32, ptr %4, align 4, !tbaa !3
  %14 = call ptr @Gli_ManObj(ptr noundef %12, i32 noundef %13)
  store ptr %14, ptr %3, align 8, !tbaa !27
  %15 = icmp ne ptr %14, null
  br label %16

16:                                               ; preds = %11, %5
  %17 = phi i1 [ false, %5 ], [ %15, %11 ]
  br i1 %17, label %18, label %28

18:                                               ; preds = %16
  %19 = load ptr, ptr %3, align 8, !tbaa !27
  %20 = getelementptr inbounds nuw %struct.Gli_Obj_t_, ptr %19, i32 0, i32 4
  store i32 0, ptr %20, align 4, !tbaa !36
  %21 = load ptr, ptr %3, align 8, !tbaa !27
  %22 = getelementptr inbounds nuw %struct.Gli_Obj_t_, ptr %21, i32 0, i32 5
  store i32 0, ptr %22, align 8, !tbaa !36
  br label %23

23:                                               ; preds = %18
  %24 = load ptr, ptr %3, align 8, !tbaa !27
  %25 = call i32 @Gli_ObjSize(ptr noundef %24)
  %26 = load i32, ptr %4, align 4, !tbaa !3
  %27 = add nsw i32 %26, %25
  store i32 %27, ptr %4, align 4, !tbaa !3
  br label %5, !llvm.loop !37

28:                                               ; preds = %16
  call void @llvm.lifetime.end.p0(i64 4, ptr %4) #10
  call void @llvm.lifetime.end.p0(i64 8, ptr %3) #10
  ret void
}