; Function Attrs: nofree norecurse nosync nounwind memory(readwrite, inaccessiblemem: none) uwtable
define void @Gli_ManFinalize(ptr noundef readonly captures(none) %0) local_unnamed_addr #7 {
  %2 = getelementptr i8, ptr %0, i64 64
  %3 = getelementptr inbounds nuw i8, ptr %0, i64 56
  %4 = load i32, ptr %3, align 8, !tbaa !20
  %5 = icmp sgt i32 %4, 0
  br i1 %5, label %.lr.ph, label %.critedge

.lr.ph:                                           ; preds = %1, %6
  %.09 = phi i32 [ %15, %6 ], [ 0, %1 ]
  %.val = load ptr, ptr %2, align 8, !tbaa !21
  %.not = icmp eq ptr %.val, null
  br i1 %.not, label %.critedge, label %6

6:                                                ; preds = %.lr.ph
  %7 = zext nneg i32 %.09 to i64
  %8 = getelementptr inbounds nuw i32, ptr %.val, i64 %7
  %9 = getelementptr inbounds nuw i8, ptr %8, i64 20
  store i32 0, ptr %9, align 4, !tbaa !31
  %10 = getelementptr inbounds nuw i8, ptr %8, i64 24
  store i32 0, ptr %10, align 8, !tbaa !31
  %.val8 = load i32, ptr %8, align 8
  %11 = lshr i32 %.val8, 4
  %12 = and i32 %11, 7
  %13 = lshr i32 %.val8, 7
  %14 = add nuw nsw i32 %.09, 8
  %narrow.i = add nuw nsw i32 %14, %13
  %15 = add nuw nsw i32 %narrow.i, %12
  %16 = load i32, ptr %3, align 8, !tbaa !20
  %17 = icmp slt i32 %15, %16
  br i1 %17, label %.lr.ph, label %.critedge, !llvm.loop !32

.critedge:                                        ; preds = %.lr.ph, %6, %1
  ret void
}